target datalayout = "e-m:e-p270:32:32-p271:32:32-p272:64:64-i64:64-i128:128-f80:128-n8:16:32:64-S128"
target triple = "x86_64-pc-linux-gnu"

%class.G1HeapSizingPolicy = type <{ ptr, ptr, i32, i32, double, i32, [4 x i8] }>

; Function Attrs: mustprogress nounwind uwtable
define linkonce_odr hidden noundef double @_Z4MAX2IdET_S0_S0_(double noundef %0, double noundef %1) #1 comdat {
  %3 = alloca double, align 8
  %4 = alloca double, align 8
  store double %0, ptr %3, align 8
  store double %1, ptr %4, align 8
  %5 = load double, ptr %3, align 8
  %6 = load double, ptr %4, align 8
  %7 = fcmp ogt double %5, %6
  br i1 %7, label %8, label %10

8:                                                ; preds = %2
  %9 = load double, ptr %3, align 8
  br label %12

10:                                               ; preds = %2
  %11 = load double, ptr %4, align 8
  br label %12

12:                                               ; preds = %10, %8
  %13 = phi double [ %9, %8 ], [ %11, %10 ]
  ret double %13
}

; Function Attrs: mustprogress nounwind uwtable
define hidden noundef double @_ZN18G1HeapSizingPolicy15scale_with_heapEd(ptr noundef nonnull align 8 dereferenceable(36) %0, double noundef %1) #1 align 2 {
  %3 = alloca ptr, align 8
  %4 = alloca double, align 8
  %5 = alloca double, align 8
  store ptr %0, ptr %3, align 8
  store double %1, ptr %4, align 8
  %6 = load ptr, ptr %3, align 8
  %7 = load double, ptr %4, align 8
  store double %7, ptr %5, align 8
  %8 = getelementptr inbounds %class.G1HeapSizingPolicy, ptr %6, i32 0, i32 0
  %9 = load ptr, ptr %8, align 8
  %10 = load ptr, ptr %9, align 8
  %11 = getelementptr inbounds ptr, ptr %10, i64 11
  %12 = load ptr, ptr %11, align 8
  %13 = call noundef i64 %12(ptr noundef nonnull align 8 dereferenceable(1488) %9)
  %14 = getelementptr inbounds %class.G1HeapSizingPolicy, ptr %6, i32 0, i32 0
  %15 = load ptr, ptr %14, align 8
  %16 = load ptr, ptr %15, align 8
  %17 = getelementptr inbounds ptr, ptr %16, i64 15
  %18 = load ptr, ptr %17, align 8
  %19 = call noundef i64 %18(ptr noundef nonnull align 8 dereferenceable(1488) %15)
  %20 = udiv i64 %19, 2
  %21 = icmp ule i64 %13, %20
  br i1 %21, label %22, label %43

22:                                               ; preds = %2
  %23 = getelementptr inbounds %class.G1HeapSizingPolicy, ptr %6, i32 0, i32 0
  %24 = load ptr, ptr %23, align 8
  %25 = load ptr, ptr %24, align 8
  %26 = getelementptr inbounds ptr, ptr %25, i64 11
  %27 = load ptr, ptr %26, align 8
  %28 = call noundef i64 %27(ptr noundef nonnull align 8 dereferenceable(1488) %24)
  %29 = uitofp i64 %28 to double
  %30 = getelementptr inbounds %class.G1HeapSizingPolicy, ptr %6, i32 0, i32 0
  %31 = load ptr, ptr %30, align 8
  %32 = load ptr, ptr %31, align 8
  %33 = getelementptr inbounds ptr, ptr %32, i64 15
  %34 = load ptr, ptr %33, align 8
  %35 = call noundef i64 %34(ptr noundef nonnull align 8 dereferenceable(1488) %31)
  %36 = udiv i64 %35, 2
  %37 = uitofp i64 %36 to double
  %38 = fdiv double %29, %37
  %39 = load double, ptr %5, align 8
  %40 = fmul double %39, %38
  store double %40, ptr %5, align 8
  %41 = load double, ptr %5, align 8
  %42 = call noundef double @_Z4MAX2IdET_S0_S0_(double noundef %41, double noundef 1.000000e-02)
  store double %42, ptr %5, align 8
  br label %43

43:                                               ; preds = %22, %2
  %44 = load double, ptr %5, align 8
  ret double %44
}