; Function Attrs: mustprogress nounwind uwtable
define hidden noundef double @_ZN18G1HeapSizingPolicy15scale_with_heapEd(ptr nocapture noundef nonnull readonly align 8 dereferenceable(36) %0, double noundef %1) local_unnamed_addr #0 align 2 {
  %3 = load ptr, ptr %0, align 8
  %4 = load ptr, ptr %3, align 8
  %5 = getelementptr inbounds i8, ptr %4, i64 88
  %6 = load ptr, ptr %5, align 8
  %7 = tail call noundef i64 %6(ptr noundef nonnull align 8 dereferenceable(1488) %3) #7
  %8 = load ptr, ptr %0, align 8
  %9 = load ptr, ptr %8, align 8
  %10 = getelementptr inbounds i8, ptr %9, i64 120
  %11 = load ptr, ptr %10, align 8
  %12 = tail call noundef i64 %11(ptr noundef nonnull align 8 dereferenceable(1488) %8) #7
  %13 = lshr i64 %12, 1
  %.not = icmp ugt i64 %7, %13
  br i1 %.not, label %32, label %14

14:                                               ; preds = %2
  %15 = load ptr, ptr %0, align 8
  %16 = load ptr, ptr %15, align 8
  %17 = getelementptr inbounds i8, ptr %16, i64 88
  %18 = load ptr, ptr %17, align 8
  %19 = tail call noundef i64 %18(ptr noundef nonnull align 8 dereferenceable(1488) %15) #7
  %20 = uitofp i64 %19 to double
  %21 = load ptr, ptr %0, align 8
  %22 = load ptr, ptr %21, align 8
  %23 = getelementptr inbounds i8, ptr %22, i64 120
  %24 = load ptr, ptr %23, align 8
  %25 = tail call noundef i64 %24(ptr noundef nonnull align 8 dereferenceable(1488) %21) #7
  %26 = lshr i64 %25, 1
  %27 = uitofp nneg i64 %26 to double
  %28 = fdiv double %20, %27
  %29 = fmul double %28, %1
  %30 = fcmp ogt double %29, 1.000000e-02
  %31 = select i1 %30, double %29, double 1.000000e-02
  br label %32

32:                                               ; preds = %14, %2
  %.0 = phi double [ %31, %14 ], [ %1, %2 ]
  ret double %.0
}